; Function Attrs: mustprogress nofree norecurse nosync nounwind willreturn memory(argmem: write) uwtable
define void @b2MakeSquare(ptr dead_on_unwind noalias writable writeonly sret(%struct.b2Polygon) align 4 captures(none) initializes((0, 144)) %0, float noundef %1) local_unnamed_addr #4 {
  %3 = getelementptr inbounds nuw i8, ptr %0, i64 32
  tail call void @llvm.memset.p0.i64(ptr noundef nonnull align 4 dereferenceable(144) %3, i8 0, i64 96, i1 false), !alias.scope !25
  %4 = getelementptr inbounds nuw i8, ptr %0, i64 140
  store i32 4, ptr %4, align 4, !tbaa !18, !alias.scope !25
  %5 = fneg float %1
  store float %5, ptr %0, align 4, !tbaa !9, !alias.scope !25
  %.sroa.214.0..sroa_idx.i = getelementptr inbounds nuw i8, ptr %0, i64 4
  store float %5, ptr %.sroa.214.0..sroa_idx.i, align 4, !tbaa !9, !alias.scope !25
  %6 = getelementptr inbounds nuw i8, ptr %0, i64 8
  store float %1, ptr %6, align 4, !tbaa !9, !alias.scope !25
  %.sroa.212.0..sroa_idx.i = getelementptr inbounds nuw i8, ptr %0, i64 12
  store float %5, ptr %.sroa.212.0..sroa_idx.i, align 4, !tbaa !9, !alias.scope !25
  %7 = getelementptr inbounds nuw i8, ptr %0, i64 16
  store float %1, ptr %7, align 4, !tbaa !9, !alias.scope !25
  %.sroa.210.0..sroa_idx.i = getelementptr inbounds nuw i8, ptr %0, i64 20
  store float %1, ptr %.sroa.210.0..sroa_idx.i, align 4, !tbaa !9, !alias.scope !25
  %8 = getelementptr inbounds nuw i8, ptr %0, i64 24
  store float %5, ptr %8, align 4, !tbaa !9, !alias.scope !25
  %.sroa.28.0..sroa_idx.i = getelementptr inbounds nuw i8, ptr %0, i64 28
  store float %1, ptr %.sroa.28.0..sroa_idx.i, align 4, !tbaa !9, !alias.scope !25
  %.sroa.26.0..sroa_idx.i = getelementptr inbounds nuw i8, ptr %0, i64 68
  store float -1.000000e+00, ptr %.sroa.26.0..sroa_idx.i, align 4, !tbaa !9, !alias.scope !25
  %9 = getelementptr inbounds nuw i8, ptr %0, i64 72
  store float 1.000000e+00, ptr %9, align 4, !tbaa !9, !alias.scope !25
  %.sroa.22.0..sroa_idx.i = getelementptr inbounds nuw i8, ptr %0, i64 84
  store float 1.000000e+00, ptr %.sroa.22.0..sroa_idx.i, align 4, !tbaa !9, !alias.scope !25
  %10 = getelementptr inbounds nuw i8, ptr %0, i64 88
  store float -1.000000e+00, ptr %10, align 4, !tbaa !9, !alias.scope !25
  %11 = getelementptr inbounds nuw i8, ptr %0, i64 136
  store float 0.000000e+00, ptr %11, align 4, !tbaa !20, !alias.scope !25
  %12 = getelementptr inbounds nuw i8, ptr %0, i64 128
  store i64 0, ptr %12, align 4, !alias.scope !25
  ret void
}